target datalayout = "e-m:e-p270:32:32-p271:32:32-p272:64:64-i64:64-i128:128-f80:128-n8:16:32:64-S128"
target triple = "x86_64-pc-linux-gnu"

%"class.std::__cxx11::basic_string" = type { %"struct.std::__cxx11::basic_string<char>::_Alloc_hider", i64, %union.anon.0 }
%"struct.std::__cxx11::basic_string<char>::_Alloc_hider" = type { ptr }
%union.anon.0 = type { i64, [8 x i8] }
%"struct.vcpkg::Triplet" = type { ptr }
%"struct.vcpkg::Path" = type { %"class.std::__cxx11::basic_string" }
%"struct.vcpkg::Optional.171" = type { %"struct.vcpkg::details::OptionalStorage.172" }
%"struct.vcpkg::details::OptionalStorage.172" = type { i8, %union.anon.173 }
%union.anon.173 = type { %"struct.vcpkg::Path" }
%"class.std::vector" = type { %"struct.std::_Vector_base" }
%"struct.std::_Vector_base" = type { %"struct.std::_Vector_base<std::__cxx11::basic_string<char>, std::allocator<std::__cxx11::basic_string<char>>>::_Vector_impl" }
%"struct.std::_Vector_base<std::__cxx11::basic_string<char>, std::allocator<std::__cxx11::basic_string<char>>>::_Vector_impl" = type { %"struct.std::_Vector_base<std::__cxx11::basic_string<char>, std::allocator<std::__cxx11::basic_string<char>>>::_Vector_impl_data" }
%"struct.std::_Vector_base<std::__cxx11::basic_string<char>, std::allocator<std::__cxx11::basic_string<char>>>::_Vector_impl_data" = type { ptr, ptr, ptr }
%"struct.vcpkg::Optional" = type { %"struct.vcpkg::details::OptionalStorage" }
%"struct.vcpkg::details::OptionalStorage" = type { i8, %union.anon }
%union.anon = type { %"class.std::__cxx11::basic_string" }
%"struct.vcpkg::PreBuildInfo" = type { %"struct.vcpkg::Triplet", i8, i8, i8, %"class.std::__cxx11::basic_string", %"class.std::__cxx11::basic_string", %"class.std::__cxx11::basic_string", %"struct.vcpkg::Optional", %"struct.vcpkg::Optional", %"struct.vcpkg::Optional.171", %"struct.vcpkg::Optional", %"struct.vcpkg::Optional.276", %"struct.vcpkg::Optional", %"class.std::vector", %"class.std::vector", %"struct.vcpkg::Optional.171", ptr }
%"struct.vcpkg::Optional.276" = type { %"struct.vcpkg::details::OptionalStorage.277" }
%"struct.vcpkg::details::OptionalStorage.277" = type { i8, %union.anon.278 }
%union.anon.278 = type { i32 }

@.str.7 = private unnamed_addr constant [13 x i8] c"WindowsStore\00", align 1

; Function Attrs: mustprogress nounwind uwtable
define linkonce_odr dso_local noundef zeroext i1 @_ZSteqIcSt11char_traitsIcESaIcEEbRKNSt7__cxx1112basic_stringIT_T0_T1_EEPKS5_(ptr noundef nonnull align 8 dereferenceable(32) %0, ptr noundef %1) #4 comdat {
  %3 = alloca ptr, align 8
  %4 = alloca ptr, align 8
  store ptr %0, ptr %3, align 8
  store ptr %1, ptr %4, align 8
  %5 = load ptr, ptr %3, align 8
  %6 = load ptr, ptr %4, align 8
  %7 = call noundef i32 @_ZNKSt7__cxx1112basic_stringIcSt11char_traitsIcESaIcEE7compareEPKc(ptr noundef nonnull align 8 dereferenceable(32) %5, ptr noundef %6) #8
  %8 = icmp eq i32 %7, 0
  ret i1 %8
}

; Function Attrs: mustprogress nounwind uwtable
define linkonce_odr dso_local noundef zeroext i1 @_ZNK5vcpkg7details15OptionalStorageINSt7__cxx1112basic_stringIcSt11char_traitsIcESaIcEEELb1EE9has_valueEv(ptr noundef nonnull align 8 dereferenceable(40) %0) #4 comdat align 2 {
  %2 = alloca ptr, align 8
  store ptr %0, ptr %2, align 8
  %3 = load ptr, ptr %2, align 8
  %4 = getelementptr inbounds %"struct.vcpkg::details::OptionalStorage", ptr %3, i32 0, i32 0
  %5 = load i8, ptr %4, align 8
  %6 = trunc i8 %5 to i1
  ret i1 %6
}

; Function Attrs: mustprogress uwtable
define dso_local noundef zeroext i1 @_ZNK5vcpkg12PreBuildInfo12using_vcvarsEv(ptr noundef nonnull align 8 dereferenceable(416) %0) #0 align 2 {
  %2 = alloca ptr, align 8
  store ptr %0, ptr %2, align 8
  %3 = load ptr, ptr %2, align 8
  %4 = getelementptr inbounds %"struct.vcpkg::PreBuildInfo", ptr %3, i32 0, i32 10
  %5 = call noundef zeroext i1 @_ZNK5vcpkg7details15OptionalStorageINSt7__cxx1112basic_stringIcSt11char_traitsIcESaIcEEELb1EE9has_valueEv(ptr noundef nonnull align 8 dereferenceable(40) %4) #8
  br i1 %5, label %6, label %10

6:                                                ; preds = %1
  %7 = getelementptr inbounds %"struct.vcpkg::PreBuildInfo", ptr %3, i32 0, i32 1
  %8 = load i8, ptr %7, align 8
  %9 = trunc i8 %8 to i1
  br i1 %9, label %10, label %18

10:                                               ; preds = %6, %1
  %11 = getelementptr inbounds %"struct.vcpkg::PreBuildInfo", ptr %3, i32 0, i32 5
  %12 = call noundef zeroext i1 @_ZNKSt7__cxx1112basic_stringIcSt11char_traitsIcESaIcEE5emptyEv(ptr noundef nonnull align 8 dereferenceable(32) %11) #8
  br i1 %12, label %16, label %13

13:                                               ; preds = %10
  %14 = getelementptr inbounds %"struct.vcpkg::PreBuildInfo", ptr %3, i32 0, i32 5
  %15 = call noundef zeroext i1 @_ZSteqIcSt11char_traitsIcESaIcEEbRKNSt7__cxx1112basic_stringIT_T0_T1_EEPKS5_(ptr noundef nonnull align 8 dereferenceable(32) %14, ptr noundef @.str.7)
  br label %16

16:                                               ; preds = %13, %10
  %17 = phi i1 [ true, %10 ], [ %15, %13 ]
  br label %18

18:                                               ; preds = %16, %6
  %19 = phi i1 [ false, %6 ], [ %17, %16 ]
  ret i1 %19
}