; Function Attrs: mustprogress nounwind uwtable
define dso_local noundef zeroext i1 @_ZNK5vcpkg12PreBuildInfo12using_vcvarsEv(ptr noundef nonnull align 8 dereferenceable(416) %0) local_unnamed_addr #6 align 2 {
  %2 = getelementptr inbounds i8, ptr %0, i64 232
  %3 = load i8, ptr %2, align 8
  %4 = and i8 %3, 1
  %.not1 = icmp eq i8 %4, 0
  br i1 %.not1, label %9, label %5

5:                                                ; preds = %1
  %6 = getelementptr inbounds i8, ptr %0, i64 8
  %7 = load i8, ptr %6, align 8
  %8 = and i8 %7, 1
  %.not = icmp eq i8 %8, 0
  br i1 %.not, label %15, label %9

9:                                                ; preds = %5, %1
  %10 = getelementptr inbounds i8, ptr %0, i64 48
  %11 = tail call noundef zeroext i1 @_ZNKSt7__cxx1112basic_stringIcSt11char_traitsIcESaIcEE5emptyEv(ptr noundef nonnull align 8 dereferenceable(32) %10) #25
  br i1 %11, label %15, label %12

12:                                               ; preds = %9
  %13 = tail call noundef i32 @_ZNKSt7__cxx1112basic_stringIcSt11char_traitsIcESaIcEE7compareEPKc(ptr noundef nonnull align 8 dereferenceable(32) %10, ptr noundef nonnull @.str.7) #25
  %14 = icmp eq i32 %13, 0
  br label %15

15:                                               ; preds = %9, %12, %5
  %16 = phi i1 [ false, %5 ], [ true, %9 ], [ %14, %12 ]
  ret i1 %16
}